target datalayout = "e-m:e-p270:32:32-p271:32:32-p272:64:64-i64:64-i128:128-f80:128-n8:16:32:64-S128"
target triple = "x86_64-pc-linux-gnu"

%struct.Plane = type { %struct.DWTPlane, i32, i32, i64, i8, i8, i8, i8, i8, i8, [5 x [4 x %struct.SubBand]] }
%struct.DWTPlane = type { i32, i32, i32, ptr, ptr, ptr }
%struct.SubBand = type { i32, i32, i32, i32, i32, i32, i32, ptr, ptr, i32, ptr }

; Function Attrs: nounwind uwtable
define internal i32 @weight(i32 noundef %0, i32 noundef %1, i32 noundef %2) #1 {
  %4 = alloca i32, align 4
  %5 = alloca i32, align 4
  %6 = alloca i32, align 4
  %7 = alloca i32, align 4
  store i32 %0, ptr %5, align 4, !tbaa !47
  store i32 %1, ptr %6, align 4, !tbaa !47
  store i32 %2, ptr %7, align 4, !tbaa !47
  %8 = load i32, ptr %5, align 4, !tbaa !47
  %9 = load i32, ptr %7, align 4, !tbaa !47
  %10 = mul nsw i32 2, %9
  %11 = icmp slt i32 %8, %10
  br i1 %11, label %12, label %32

12:                                               ; preds = %3
  %13 = load i32, ptr %7, align 4, !tbaa !47
  %14 = icmp eq i32 %13, 1
  br i1 %14, label %15, label %19

15:                                               ; preds = %12
  %16 = load i32, ptr %5, align 4, !tbaa !47
  %17 = icmp ne i32 %16, 0
  %18 = select i1 %17, i32 5, i32 3
  br label %30

19:                                               ; preds = %12
  %20 = load i32, ptr %5, align 4, !tbaa !47
  %21 = mul nsw i32 6, %20
  %22 = load i32, ptr %7, align 4, !tbaa !47
  %23 = add nsw i32 %21, %22
  %24 = sub nsw i32 %23, 1
  %25 = load i32, ptr %7, align 4, !tbaa !47
  %26 = mul nsw i32 2, %25
  %27 = sub nsw i32 %26, 1
  %28 = sdiv i32 %24, %27
  %29 = add nsw i32 1, %28
  br label %30

30:                                               ; preds = %19, %15
  %31 = phi i32 [ %18, %15 ], [ %29, %19 ]
  store i32 %31, ptr %4, align 4
  br label %68

32:                                               ; preds = %3
  %33 = load i32, ptr %5, align 4, !tbaa !47
  %34 = load i32, ptr %6, align 4, !tbaa !47
  %35 = sub nsw i32 %34, 1
  %36 = load i32, ptr %7, align 4, !tbaa !47
  %37 = mul nsw i32 2, %36
  %38 = sub nsw i32 %35, %37
  %39 = icmp sgt i32 %33, %38
  br i1 %39, label %40, label %66

40:                                               ; preds = %32
  %41 = load i32, ptr %7, align 4, !tbaa !47
  %42 = icmp eq i32 %41, 1
  br i1 %42, label %43, label %50

43:                                               ; preds = %40
  %44 = load i32, ptr %6, align 4, !tbaa !47
  %45 = sub nsw i32 %44, 1
  %46 = load i32, ptr %5, align 4, !tbaa !47
  %47 = sub nsw i32 %45, %46
  %48 = icmp ne i32 %47, 0
  %49 = select i1 %48, i32 5, i32 3
  br label %64

50:                                               ; preds = %40
  %51 = load i32, ptr %6, align 4, !tbaa !47
  %52 = sub nsw i32 %51, 1
  %53 = load i32, ptr %5, align 4, !tbaa !47
  %54 = sub nsw i32 %52, %53
  %55 = mul nsw i32 6, %54
  %56 = load i32, ptr %7, align 4, !tbaa !47
  %57 = add nsw i32 %55, %56
  %58 = sub nsw i32 %57, 1
  %59 = load i32, ptr %7, align 4, !tbaa !47
  %60 = mul nsw i32 2, %59
  %61 = sub nsw i32 %60, 1
  %62 = sdiv i32 %58, %61
  %63 = add nsw i32 1, %62
  br label %64

64:                                               ; preds = %50, %43
  %65 = phi i32 [ %49, %43 ], [ %63, %50 ]
  store i32 %65, ptr %4, align 4
  br label %68

66:                                               ; preds = %32
  br label %67

67:                                               ; preds = %66
  store i32 8, ptr %4, align 4
  br label %68

68:                                               ; preds = %67, %64, %30
  %69 = load i32, ptr %4, align 4
  ret i32 %69
}

; Function Attrs: nounwind uwtable
define internal void @init_obmc_weight_row(ptr noundef %0, ptr noundef %1, i32 noundef %2, i32 noundef %3, i32 noundef %4, i32 noundef %5) #1 {
  %7 = alloca ptr, align 8
  %8 = alloca ptr, align 8
  %9 = alloca i32, align 4
  %10 = alloca i32, align 4
  %11 = alloca i32, align 4
  %12 = alloca i32, align 4
  %13 = alloca i32, align 4
  store ptr %0, ptr %7, align 8, !tbaa !159
  store ptr %1, ptr %8, align 8, !tbaa !59
  store i32 %2, ptr %9, align 4, !tbaa !47
  store i32 %3, ptr %10, align 4, !tbaa !47
  store i32 %4, ptr %11, align 4, !tbaa !47
  store i32 %5, ptr %12, align 4, !tbaa !47
  call void @llvm.lifetime.start.p0(i64 4, ptr %13) #12
  store i32 0, ptr %13, align 4, !tbaa !47
  br label %14

14:                                               ; preds = %35, %6
  %15 = load i32, ptr %10, align 4, !tbaa !47
  %16 = icmp ne i32 %15, 0
  br i1 %16, label %17, label %25

17:                                               ; preds = %14
  %18 = load i32, ptr %13, align 4, !tbaa !47
  %19 = load ptr, ptr %7, align 8, !tbaa !159
  %20 = getelementptr inbounds nuw %struct.Plane, ptr %19, i32 0, i32 4
  %21 = load i8, ptr %20, align 8, !tbaa !172
  %22 = zext i8 %21 to i32
  %23 = ashr i32 %22, 1
  %24 = icmp slt i32 %18, %23
  br label %25

25:                                               ; preds = %17, %14
  %26 = phi i1 [ false, %14 ], [ %24, %17 ]
  br i1 %26, label %27, label %38

27:                                               ; preds = %25
  %28 = load i32, ptr %12, align 4, !tbaa !47
  %29 = mul nsw i32 %28, 8
  %30 = trunc i32 %29 to i8
  %31 = load ptr, ptr %8, align 8, !tbaa !59
  %32 = load i32, ptr %13, align 4, !tbaa !47
  %33 = sext i32 %32 to i64
  %34 = getelementptr inbounds i8, ptr %31, i64 %33
  store i8 %30, ptr %34, align 1, !tbaa !64
  br label %35

35:                                               ; preds = %27
  %36 = load i32, ptr %13, align 4, !tbaa !47
  %37 = add nsw i32 %36, 1
  store i32 %37, ptr %13, align 4, !tbaa !47
  br label %14, !llvm.loop !327

38:                                               ; preds = %25
  br label %39

39:                                               ; preds = %66, %38
  %40 = load i32, ptr %13, align 4, !tbaa !47
  %41 = load ptr, ptr %7, align 8, !tbaa !159
  %42 = getelementptr inbounds nuw %struct.Plane, ptr %41, i32 0, i32 4
  %43 = load i8, ptr %42, align 8, !tbaa !172
  %44 = zext i8 %43 to i32
  %45 = load i32, ptr %11, align 4, !tbaa !47
  %46 = ashr i32 %44, %45
  %47 = icmp slt i32 %40, %46
  br i1 %47, label %48, label %69

48:                                               ; preds = %39
  %49 = load i32, ptr %12, align 4, !tbaa !47
  %50 = load i32, ptr %13, align 4, !tbaa !47
  %51 = load ptr, ptr %7, align 8, !tbaa !159
  %52 = getelementptr inbounds nuw %struct.Plane, ptr %51, i32 0, i32 4
  %53 = load i8, ptr %52, align 8, !tbaa !172
  %54 = zext i8 %53 to i32
  %55 = load ptr, ptr %7, align 8, !tbaa !159
  %56 = getelementptr inbounds nuw %struct.Plane, ptr %55, i32 0, i32 8
  %57 = load i8, ptr %56, align 4, !tbaa !179
  %58 = zext i8 %57 to i32
  %59 = call i32 @weight(i32 noundef %50, i32 noundef %54, i32 noundef %58)
  %60 = mul nsw i32 %49, %59
  %61 = trunc i32 %60 to i8
  %62 = load ptr, ptr %8, align 8, !tbaa !59
  %63 = load i32, ptr %13, align 4, !tbaa !47
  %64 = sext i32 %63 to i64
  %65 = getelementptr inbounds i8, ptr %62, i64 %64
  store i8 %61, ptr %65, align 1, !tbaa !64
  br label %66

66:                                               ; preds = %48
  %67 = load i32, ptr %13, align 4, !tbaa !47
  %68 = add nsw i32 %67, 1
  store i32 %68, ptr %13, align 4, !tbaa !47
  br label %39, !llvm.loop !328

69:                                               ; preds = %39
  br label %70

70:                                               ; preds = %85, %69
  %71 = load i32, ptr %13, align 4, !tbaa !47
  %72 = load ptr, ptr %7, align 8, !tbaa !159
  %73 = getelementptr inbounds nuw %struct.Plane, ptr %72, i32 0, i32 4
  %74 = load i8, ptr %73, align 8, !tbaa !172
  %75 = zext i8 %74 to i32
  %76 = icmp slt i32 %71, %75
  br i1 %76, label %77, label %88

77:                                               ; preds = %70
  %78 = load i32, ptr %12, align 4, !tbaa !47
  %79 = mul nsw i32 %78, 8
  %80 = trunc i32 %79 to i8
  %81 = load ptr, ptr %8, align 8, !tbaa !59
  %82 = load i32, ptr %13, align 4, !tbaa !47
  %83 = sext i32 %82 to i64
  %84 = getelementptr inbounds i8, ptr %81, i64 %83
  store i8 %80, ptr %84, align 1, !tbaa !64
  br label %85

85:                                               ; preds = %77
  %86 = load i32, ptr %13, align 4, !tbaa !47
  %87 = add nsw i32 %86, 1
  store i32 %87, ptr %13, align 4, !tbaa !47
  br label %70, !llvm.loop !329

88:                                               ; preds = %70
  br label %89

89:                                               ; preds = %98, %88
  %90 = load i32, ptr %13, align 4, !tbaa !47
  %91 = load i32, ptr %9, align 4, !tbaa !47
  %92 = icmp slt i32 %90, %91
  br i1 %92, label %93, label %101

93:                                               ; preds = %89
  %94 = load ptr, ptr %8, align 8, !tbaa !59
  %95 = load i32, ptr %13, align 4, !tbaa !47
  %96 = sext i32 %95 to i64
  %97 = getelementptr inbounds i8, ptr %94, i64 %96
  store i8 0, ptr %97, align 1, !tbaa !64
  br label %98

98:                                               ; preds = %93
  %99 = load i32, ptr %13, align 4, !tbaa !47
  %100 = add nsw i32 %99, 1
  store i32 %100, ptr %13, align 4, !tbaa !47
  br label %89, !llvm.loop !330

101:                                              ; preds = %89
  call void @llvm.lifetime.end.p0(i64 4, ptr %13) #12
  ret void
}