; Function Attrs: nofree norecurse nosync nounwind memory(argmem: readwrite) uwtable
define internal fastcc void @init_obmc_weight_row(ptr noundef readonly captures(none) %0, ptr noundef writeonly captures(none) %1, i32 noundef range(i32 0, 2) %2, i32 noundef range(i32 0, 2) %3, i32 noundef %4) unnamed_addr #11 {
  %6 = getelementptr inbounds nuw i8, ptr %0, i64 56
  %.not = icmp eq i32 %2, 0
  %.pre = load i8, ptr %6, align 8, !tbaa !142
  br i1 %.not, label %.critedge, label %.lr.ph

.lr.ph:                                           ; preds = %5
  %.tr27 = trunc i32 %4 to i8
  %7 = shl i8 %.tr27, 3
  %.not43 = icmp ult i8 %.pre, 2
  br i1 %.not43, label %.critedge, label %.lr.ph34

.lr.ph34:                                         ; preds = %.lr.ph, %.lr.ph34
  %indvars.iv = phi i64 [ %indvars.iv.next, %.lr.ph34 ], [ 0, %.lr.ph ]
  %8 = getelementptr inbounds nuw i8, ptr %1, i64 %indvars.iv
  store i8 %7, ptr %8, align 1, !tbaa !61
  %indvars.iv.next = add nuw nsw i64 %indvars.iv, 1
  %9 = load i8, ptr %6, align 8, !tbaa !142
  %10 = lshr i8 %9, 1
  %11 = zext nneg i8 %10 to i64
  %12 = icmp samesign ult i64 %indvars.iv.next, %11
  br i1 %12, label %.lr.ph34, label %.critedge.loopexit

.critedge.loopexit:                               ; preds = %.lr.ph34
  %13 = trunc nuw nsw i64 %indvars.iv.next to i32
  br label %.critedge

.critedge:                                        ; preds = %.critedge.loopexit, %.lr.ph, %5
  %14 = phi i8 [ %.pre, %5 ], [ %.pre, %.lr.ph ], [ %9, %.critedge.loopexit ]
  %.0.lcssa = phi i32 [ 0, %5 ], [ 0, %.lr.ph ], [ %13, %.critedge.loopexit ]
  %15 = zext i8 %14 to i32
  %16 = lshr i32 %15, %3
  %17 = icmp samesign ult i32 %.0.lcssa, %16
  br i1 %17, label %.lr.ph36, label %.preheader28

.lr.ph36:                                         ; preds = %.critedge
  %18 = getelementptr inbounds nuw i8, ptr %0, i64 60
  %19 = zext nneg i32 %.0.lcssa to i64
  br label %24

.preheader28.loopexit:                            ; preds = %weight.exit
  %20 = trunc nuw nsw i64 %indvars.iv.next48 to i32
  br label %.preheader28

.preheader28:                                     ; preds = %.preheader28.loopexit, %.critedge
  %.pre-phi = phi i32 [ %66, %.preheader28.loopexit ], [ %15, %.critedge ]
  %.1.lcssa = phi i32 [ %20, %.preheader28.loopexit ], [ %.0.lcssa, %.critedge ]
  %21 = icmp samesign ult i32 %.1.lcssa, %.pre-phi
  br i1 %21, label %.lr.ph39, label %.preheader

.lr.ph39:                                         ; preds = %.preheader28
  %.tr = trunc i32 %4 to i8
  %22 = shl i8 %.tr, 3
  %23 = zext nneg i32 %.1.lcssa to i64
  br label %74

24:                                               ; preds = %.lr.ph36, %weight.exit
  %indvars.iv47 = phi i64 [ %19, %.lr.ph36 ], [ %indvars.iv.next48, %weight.exit ]
  %25 = phi i32 [ %15, %.lr.ph36 ], [ %66, %weight.exit ]
  %26 = load i8, ptr %18, align 4, !tbaa !226
  %27 = zext i8 %26 to i32
  %28 = shl nuw nsw i32 %27, 1
  %29 = zext nneg i32 %28 to i64
  %30 = icmp samesign ult i64 %indvars.iv47, %29
  br i1 %30, label %31, label %43

31:                                               ; preds = %24
  %32 = icmp eq i8 %26, 1
  br i1 %32, label %33, label %35

33:                                               ; preds = %31
  %.not23.i = icmp eq i64 %indvars.iv47, 0
  %34 = select i1 %.not23.i, i32 3, i32 5
  br label %weight.exit

35:                                               ; preds = %31
  %36 = trunc nuw nsw i64 %indvars.iv47 to i32
  %37 = mul nuw nsw i32 %36, 6
  %38 = add nuw nsw i32 %37, 65535
  %39 = add nuw nsw i32 %38, %27
  %.lhs.trunc = trunc i32 %39 to i16
  %40 = trunc nuw nsw i32 %28 to i16
  %.rhs.trunc = add nsw i16 %40, -1
  %41 = sdiv i16 %.lhs.trunc, %.rhs.trunc
  %.sext56 = zext i16 %41 to i32
  %42 = add nuw nsw i32 %.sext56, 1
  br label %weight.exit

43:                                               ; preds = %24
  %44 = add nsw i32 %25, -1
  %45 = sub nsw i32 %44, %28
  %46 = sext i32 %45 to i64
  %47 = icmp sgt i64 %indvars.iv47, %46
  br i1 %47, label %48, label %weight.exit

48:                                               ; preds = %43
  %49 = icmp eq i8 %26, 1
  br i1 %49, label %50, label %53

50:                                               ; preds = %48
  %51 = zext i32 %44 to i64
  %.not.i = icmp eq i64 %indvars.iv47, %51
  %52 = select i1 %.not.i, i32 3, i32 5
  br label %weight.exit

53:                                               ; preds = %48
  %54 = trunc nuw nsw i64 %indvars.iv47 to i32
  %55 = sub nsw i32 %44, %54
  %56 = mul nsw i32 %55, 6
  %57 = add nsw i32 %56, %27
  %58 = trunc nsw i32 %57 to i16
  %.lhs.trunc.i = add nsw i16 %58, -1
  %59 = trunc nuw nsw i32 %28 to i16
  %.rhs.trunc.i = add nsw i16 %59, -1
  %60 = sdiv i16 %.lhs.trunc.i, %.rhs.trunc.i
  %.sext.i57 = zext i16 %60 to i32
  %61 = add nuw nsw i32 %.sext.i57, 1
  br label %weight.exit

weight.exit:                                      ; preds = %33, %35, %43, %50, %53
  %.0.i = phi i32 [ %34, %33 ], [ %42, %35 ], [ %52, %50 ], [ %61, %53 ], [ 8, %43 ]
  %62 = mul i32 %.0.i, %4
  %63 = trunc i32 %62 to i8
  %64 = getelementptr inbounds nuw i8, ptr %1, i64 %indvars.iv47
  store i8 %63, ptr %64, align 1, !tbaa !61
  %indvars.iv.next48 = add nuw nsw i64 %indvars.iv47, 1
  %65 = load i8, ptr %6, align 8, !tbaa !142
  %66 = zext i8 %65 to i32
  %67 = lshr i32 %66, %3
  %68 = zext nneg i32 %67 to i64
  %69 = icmp samesign ult i64 %indvars.iv.next48, %68
  br i1 %69, label %24, label %.preheader28.loopexit, !llvm.loop !304

.preheader.loopexit:                              ; preds = %74
  %70 = trunc nuw nsw i64 %indvars.iv.next51 to i32
  br label %.preheader

.preheader:                                       ; preds = %.preheader.loopexit, %.preheader28
  %.2.lcssa = phi i32 [ %.1.lcssa, %.preheader28 ], [ %70, %.preheader.loopexit ]
  %71 = icmp samesign ult i32 %.2.lcssa, 32
  br i1 %71, label %.lr.ph42.preheader, label %._crit_edge

.lr.ph42.preheader:                               ; preds = %.preheader
  %72 = zext nneg i32 %.2.lcssa to i64
  %scevgep = getelementptr i8, ptr %1, i64 %72
  %narrow = sub nuw nsw i32 32, %.2.lcssa
  %73 = zext nneg i32 %narrow to i64
  tail call void @llvm.memset.p0.i64(ptr align 1 %scevgep, i8 0, i64 %73, i1 false), !tbaa !61
  br label %._crit_edge

74:                                               ; preds = %.lr.ph39, %74
  %indvars.iv50 = phi i64 [ %23, %.lr.ph39 ], [ %indvars.iv.next51, %74 ]
  %75 = getelementptr inbounds nuw i8, ptr %1, i64 %indvars.iv50
  store i8 %22, ptr %75, align 1, !tbaa !61
  %indvars.iv.next51 = add nuw nsw i64 %indvars.iv50, 1
  %76 = load i8, ptr %6, align 8, !tbaa !142
  %77 = zext i8 %76 to i64
  %78 = icmp samesign ult i64 %indvars.iv.next51, %77
  br i1 %78, label %74, label %.preheader.loopexit, !llvm.loop !305

._crit_edge:                                      ; preds = %.lr.ph42.preheader, %.preheader
  ret void
}